; Function Attrs: mustprogress uwtable
define void @_ZN3nix10TarArchive5checkEiRKNSt7__cxx1112basic_stringIcSt11char_traitsIcESaIcEEE(ptr nocapture noundef nonnull readonly align 8 dereferenceable(40) %0, i32 noundef %1, ptr noundef nonnull align 8 dereferenceable(32) %2) local_unnamed_addr #4 align 2 personality ptr @__gxx_personality_v0 {
  %4 = alloca %"class.std::__cxx11::basic_string", align 8
  %5 = alloca %"class.std::allocator.4", align 1
  %6 = alloca ptr, align 8
  switch i32 %1, label %14 [
    i32 1, label %7
    i32 0, label %22
  ]

7:                                                ; preds = %3
  %8 = tail call ptr @__cxa_allocate_exception(i64 376) #22
  call void @_ZNSaIcEC1Ev(ptr noundef nonnull align 1 dereferenceable(1) %5) #22
  invoke void @_ZNSt7__cxx1112basic_stringIcSt11char_traitsIcESaIcEEC2IS3_EEPKcRKS3_(ptr noundef nonnull align 8 dereferenceable(32) %4, ptr noundef nonnull @.str, ptr noundef nonnull align 1 dereferenceable(1) %5)
          to label %9 unwind label %.thread

9:                                                ; preds = %7
  invoke void @_ZN3nix9EndOfFileCI2NS_9BaseErrorEIJEEERKNSt7__cxx1112basic_stringIcSt11char_traitsIcESaIcEEEDpRKT_(ptr noundef nonnull align 8 dereferenceable(376) %8, ptr noundef nonnull align 8 dereferenceable(32) %4)
          to label %10 unwind label %12

10:                                               ; preds = %9
  invoke void @__cxa_throw(ptr nonnull %8, ptr nonnull @_ZTIN3nix9EndOfFileE, ptr nonnull @_ZN3nix9EndOfFileD2Ev) #23
          to label %24 unwind label %12

.thread:                                          ; preds = %7
  %11 = landingpad { ptr, i32 }
          cleanup
  call void @_ZNSaIcED1Ev(ptr noundef nonnull align 1 dereferenceable(1) %5) #22
  br label %.sink.split

12:                                               ; preds = %9, %10
  %.0 = phi i1 [ false, %10 ], [ true, %9 ]
  %13 = landingpad { ptr, i32 }
          cleanup
  call void @_ZNSt7__cxx1112basic_stringIcSt11char_traitsIcESaIcEED2Ev(ptr noundef nonnull align 8 dereferenceable(32) %4) #22
  call void @_ZNSaIcED1Ev(ptr noundef nonnull align 1 dereferenceable(1) %5) #22
  br i1 %.0, label %.sink.split, label %23

14:                                               ; preds = %3
  %15 = tail call ptr @__cxa_allocate_exception(i64 376) #22
  %16 = load ptr, ptr %0, align 8
  %17 = invoke ptr @archive_error_string(ptr noundef %16)
          to label %18 unwind label %20

18:                                               ; preds = %14
  store ptr %17, ptr %6, align 8
  invoke void @_ZN3nix5ErrorCI2NS_9BaseErrorEIJPKcEEERKNSt7__cxx1112basic_stringIcSt11char_traitsIcESaIcEEEDpRKT_(ptr noundef nonnull align 8 dereferenceable(376) %15, ptr noundef nonnull align 8 dereferenceable(32) %2, ptr noundef nonnull align 8 dereferenceable(8) %6)
          to label %19 unwind label %20

19:                                               ; preds = %18
  call void @__cxa_throw(ptr nonnull %15, ptr nonnull @_ZTIN3nix5ErrorE, ptr nonnull @_ZN3nix5ErrorD2Ev) #23
  unreachable

20:                                               ; preds = %18, %14
  %21 = landingpad { ptr, i32 }
          cleanup
  br label %.sink.split

22:                                               ; preds = %3
  ret void

.sink.split:                                      ; preds = %12, %.thread, %20
  %.sink = phi ptr [ %15, %20 ], [ %8, %.thread ], [ %8, %12 ]
  %.pn.pn.ph = phi { ptr, i32 } [ %21, %20 ], [ %11, %.thread ], [ %13, %12 ]
  call void @__cxa_free_exception(ptr %.sink) #22
  br label %23

23:                                               ; preds = %.sink.split, %12
  %.pn.pn = phi { ptr, i32 } [ %13, %12 ], [ %.pn.pn.ph, %.sink.split ]
  resume { ptr, i32 } %.pn.pn

24:                                               ; preds = %10
  unreachable
}